target datalayout = "e-m:e-p270:32:32-p271:32:32-p272:64:64-i64:64-i128:128-f80:128-n8:16:32:64-S128"
target triple = "x86_64-pc-linux-gnu"

%struct.Aig_Man_t_ = type { ptr, ptr, ptr, ptr, ptr, ptr, ptr, %struct.Aig_Obj_t_, i32, i32, i32, i32, i32, i32, [7 x i32], i32, ptr, i32, ptr, i32, ptr, i32, i32, i32, ptr, i32, i32, i32, i32, i32, ptr, ptr, i32, ptr, ptr, i32, ptr, ptr, i32, i32, i32, ptr, ptr, ptr, ptr, ptr, ptr, ptr, ptr, ptr, ptr, ptr, ptr, ptr, ptr, i32, ptr, ptr, ptr, ptr, i32, i64, i64, i64, ptr, ptr }
%struct.Aig_Obj_t_ = type { %union.anon, ptr, ptr, i64, i32, i32, %union.anon.0 }
%union.anon = type { ptr }
%union.anon.0 = type { ptr }

@.str.14 = private unnamed_addr constant [2 x i8] c"\0A\00", align 1
@.str.15 = private unnamed_addr constant [43 x i8] c"REG: Beg = %5d. End = %5d. (R =%5.1f %%)  \00", align 1
@.str.16 = private unnamed_addr constant [41 x i8] c"AND: Beg = %6d. End = %6d. (R =%5.1f %%)\00", align 1

; Function Attrs: inlinehint nounwind uwtable
define internal i32 @Aig_ManNodeNum(ptr noundef %0) #4 {
  %2 = alloca ptr, align 8
  store ptr %0, ptr %2, align 8, !tbaa !7
  %3 = load ptr, ptr %2, align 8, !tbaa !7
  %4 = getelementptr inbounds nuw %struct.Aig_Man_t_, ptr %3, i32 0, i32 14
  %5 = getelementptr inbounds [7 x i32], ptr %4, i64 0, i64 5
  %6 = load i32, ptr %5, align 4, !tbaa !3
  %7 = load ptr, ptr %2, align 8, !tbaa !7
  %8 = getelementptr inbounds nuw %struct.Aig_Man_t_, ptr %7, i32 0, i32 14
  %9 = getelementptr inbounds [7 x i32], ptr %8, i64 0, i64 6
  %10 = load i32, ptr %9, align 8, !tbaa !3
  %11 = add nsw i32 %6, %10
  ret i32 %11
}

; Function Attrs: inlinehint nounwind uwtable
define internal i32 @Aig_ManRegNum(ptr noundef %0) #4 {
  %2 = alloca ptr, align 8
  store ptr %0, ptr %2, align 8, !tbaa !7
  %3 = load ptr, ptr %2, align 8, !tbaa !7
  %4 = getelementptr inbounds nuw %struct.Aig_Man_t_, ptr %3, i32 0, i32 8
  %5 = load i32, ptr %4, align 8, !tbaa !85
  ret i32 %5
}

; Function Attrs: nounwind uwtable
define void @Aig_ManReportImprovement(ptr noundef %0, ptr noundef %1) #0 {
  %3 = alloca ptr, align 8
  %4 = alloca ptr, align 8
  store ptr %0, ptr %3, align 8, !tbaa !7
  store ptr %1, ptr %4, align 8, !tbaa !7
  %5 = load ptr, ptr %3, align 8, !tbaa !7
  %6 = call i32 @Aig_ManRegNum(ptr noundef %5)
  %7 = load ptr, ptr %4, align 8, !tbaa !7
  %8 = call i32 @Aig_ManRegNum(ptr noundef %7)
  %9 = load ptr, ptr %3, align 8, !tbaa !7
  %10 = call i32 @Aig_ManRegNum(ptr noundef %9)
  %11 = icmp ne i32 %10, 0
  br i1 %11, label %12, label %24

12:                                               ; preds = %2
  %13 = load ptr, ptr %3, align 8, !tbaa !7
  %14 = call i32 @Aig_ManRegNum(ptr noundef %13)
  %15 = load ptr, ptr %4, align 8, !tbaa !7
  %16 = call i32 @Aig_ManRegNum(ptr noundef %15)
  %17 = sub nsw i32 %14, %16
  %18 = sitofp i32 %17 to double
  %19 = fmul double 1.000000e+02, %18
  %20 = load ptr, ptr %3, align 8, !tbaa !7
  %21 = call i32 @Aig_ManRegNum(ptr noundef %20)
  %22 = sitofp i32 %21 to double
  %23 = fdiv double %19, %22
  br label %25

24:                                               ; preds = %2
  br label %25

25:                                               ; preds = %24, %12
  %26 = phi double [ %23, %12 ], [ 0.000000e+00, %24 ]
  %27 = call i32 (ptr, ...) @printf(ptr noundef @.str.15, i32 noundef %6, i32 noundef %8, double noundef %26)
  %28 = load ptr, ptr %3, align 8, !tbaa !7
  %29 = call i32 @Aig_ManNodeNum(ptr noundef %28)
  %30 = load ptr, ptr %4, align 8, !tbaa !7
  %31 = call i32 @Aig_ManNodeNum(ptr noundef %30)
  %32 = load ptr, ptr %3, align 8, !tbaa !7
  %33 = call i32 @Aig_ManNodeNum(ptr noundef %32)
  %34 = icmp ne i32 %33, 0
  br i1 %34, label %35, label %47

35:                                               ; preds = %25
  %36 = load ptr, ptr %3, align 8, !tbaa !7
  %37 = call i32 @Aig_ManNodeNum(ptr noundef %36)
  %38 = load ptr, ptr %4, align 8, !tbaa !7
  %39 = call i32 @Aig_ManNodeNum(ptr noundef %38)
  %40 = sub nsw i32 %37, %39
  %41 = sitofp i32 %40 to double
  %42 = fmul double 1.000000e+02, %41
  %43 = load ptr, ptr %3, align 8, !tbaa !7
  %44 = call i32 @Aig_ManNodeNum(ptr noundef %43)
  %45 = sitofp i32 %44 to double
  %46 = fdiv double %42, %45
  br label %48

47:                                               ; preds = %25
  br label %48

48:                                               ; preds = %47, %35
  %49 = phi double [ %46, %35 ], [ 0.000000e+00, %47 ]
  %50 = call i32 (ptr, ...) @printf(ptr noundef @.str.16, i32 noundef %29, i32 noundef %31, double noundef %49)
  %51 = call i32 (ptr, ...) @printf(ptr noundef @.str.14)
  ret void
}