; Function Attrs: nofree nounwind uwtable
define void @Aig_ManReportImprovement(ptr noundef readonly captures(none) %0, ptr noundef readonly captures(none) %1) local_unnamed_addr #9 {
  %3 = getelementptr i8, ptr %0, i64 104
  %.val29 = load i32, ptr %3, align 8, !tbaa !79
  %4 = getelementptr i8, ptr %1, i64 104
  %.val28 = load i32, ptr %4, align 8, !tbaa !79
  %.not = icmp eq i32 %.val29, 0
  br i1 %.not, label %11, label %5

5:                                                ; preds = %2
  %6 = sub nsw i32 %.val29, %.val28
  %7 = sitofp i32 %6 to double
  %8 = fmul double %7, 1.000000e+02
  %9 = sitofp i32 %.val29 to double
  %10 = fdiv double %8, %9
  br label %11

11:                                               ; preds = %2, %5
  %12 = phi double [ %10, %5 ], [ 0.000000e+00, %2 ]
  %13 = tail call i32 (ptr, ...) @printf(ptr noundef nonnull dereferenceable(1) @.str.15, i32 noundef %.val29, i32 noundef %.val28, double noundef %12)
  %14 = getelementptr i8, ptr %0, i64 148
  %.val22 = load i32, ptr %14, align 4, !tbaa !35
  %15 = getelementptr i8, ptr %0, i64 152
  %.val23 = load i32, ptr %15, align 8, !tbaa !35
  %16 = add nsw i32 %.val23, %.val22
  %17 = getelementptr i8, ptr %1, i64 148
  %.val20 = load i32, ptr %17, align 4, !tbaa !35
  %18 = getelementptr i8, ptr %1, i64 152
  %.val21 = load i32, ptr %18, align 8, !tbaa !35
  %19 = add nsw i32 %.val21, %.val20
  %.not12 = icmp eq i32 %16, 0
  br i1 %.not12, label %26, label %20

20:                                               ; preds = %11
  %21 = sub nsw i32 %16, %19
  %22 = sitofp i32 %21 to double
  %23 = fmul double %22, 1.000000e+02
  %24 = sitofp i32 %16 to double
  %25 = fdiv double %23, %24
  br label %26

26:                                               ; preds = %11, %20
  %27 = phi double [ %25, %20 ], [ 0.000000e+00, %11 ]
  %28 = tail call i32 (ptr, ...) @printf(ptr noundef nonnull dereferenceable(1) @.str.16, i32 noundef %16, i32 noundef %19, double noundef %27)
  %putchar = tail call i32 @putchar(i32 10)
  ret void
}